; Function Attrs: mustprogress uwtable
define void @_ZN2cv17CommandLineParser4Impl12apply_paramsEiNSt7__cxx1112basic_stringIcSt11char_traitsIcESaIcEEE(ptr noundef nonnull readonly align 8 captures(none) dereferenceable(164) %0, i32 noundef %1, ptr noundef %2) local_unnamed_addr #0 align 2 {
  %4 = getelementptr inbounds nuw i8, ptr %0, i64 136
  %5 = getelementptr inbounds nuw i8, ptr %0, i64 144
  %6 = load ptr, ptr %5, align 8, !tbaa !9
  %7 = load ptr, ptr %4, align 8, !tbaa !12
  %.not = icmp eq ptr %6, %7
  br i1 %.not, label %.loopexit, label %.lr.ph.preheader

.lr.ph.preheader:                                 ; preds = %3
  %8 = ptrtoint ptr %6 to i64
  %9 = ptrtoint ptr %7 to i64
  %10 = sub i64 %8, %9
  %11 = sdiv exact i64 %10, 96
  %umax = tail call i64 @llvm.umax.i64(i64 %11, i64 1)
  br label %.lr.ph

12:                                               ; preds = %.lr.ph
  %13 = add nuw i64 %.05, 1
  %exitcond.not = icmp eq i64 %13, %umax
  br i1 %exitcond.not, label %.loopexit, label %.lr.ph, !llvm.loop !101

.lr.ph:                                           ; preds = %.lr.ph.preheader, %12
  %.05 = phi i64 [ %13, %12 ], [ 0, %.lr.ph.preheader ]
  %14 = getelementptr inbounds nuw %"struct.cv::CommandLineParserParams", ptr %7, i64 %.05
  %15 = getelementptr inbounds nuw i8, ptr %14, i64 88
  %16 = load i32, ptr %15, align 8, !tbaa !70
  %17 = icmp eq i32 %16, %1
  br i1 %17, label %18, label %12

18:                                               ; preds = %.lr.ph
  %19 = getelementptr inbounds nuw i8, ptr %14, i64 32
  tail call void @_ZNSt7__cxx1112basic_stringIcSt11char_traitsIcESaIcEE9_M_assignERKS4_(ptr noundef nonnull align 8 dereferenceable(32) %19, ptr noundef nonnull align 8 dereferenceable(32) %2)
  br label %.loopexit

.loopexit:                                        ; preds = %12, %3, %18
  ret void
}